target datalayout = "e-m:e-p270:32:32-p271:32:32-p272:64:64-i64:64-i128:128-f80:128-n8:16:32:64-S128"
target triple = "x86_64-pc-linux-gnu"

%struct.cl_cvd = type { ptr, i32, i32, i32, ptr, ptr, ptr, i32 }

@.str.64 = private unnamed_addr constant [27 x i8] c"Can't download %s from %s\0A\00", align 1
@.str.111 = private unnamed_addr constant [6 x i8] c"%s/%s\00", align 1
@.str.188 = private unnamed_addr constant [28 x i8] c"getcvd: Invalid arguments.\0A\00", align 1
@.str.189 = private unnamed_addr constant [19 x i8] c"%s is up-to-date.\0A\00", align 1
@.str.190 = private unnamed_addr constant [53 x i8] c"Can't allocate memory for temp file with extension!\0A\00", align 1
@.str.191 = private unnamed_addr constant [27 x i8] c"Can't rename %s to %s: %s\0A\00", align 1
@.str.192 = private unnamed_addr constant [18 x i8] c"Verification: %s\0A\00", align 1
@.str.193 = private unnamed_addr constant [43 x i8] c"Can't read CVD header of new %s database.\0A\00", align 1
@.str.194 = private unnamed_addr constant [96 x i8] c"The %s database downloaded from %s is older than the version advertised in the DNS TXT record.\0A\00", align 1

; Function Attrs: nounwind uwtable
define internal i32 @getcvd(ptr noundef %0, ptr noundef %1, ptr noundef %2, i32 noundef %3, i32 noundef %4, i32 noundef %5) #0 {
  %7 = alloca ptr, align 8
  %8 = alloca ptr, align 8
  %9 = alloca ptr, align 8
  %10 = alloca i32, align 4
  %11 = alloca i32, align 4
  %12 = alloca i32, align 4
  %13 = alloca i32, align 4
  %14 = alloca i32, align 4
  %15 = alloca i32, align 4
  %16 = alloca ptr, align 8
  %17 = alloca ptr, align 8
  %18 = alloca ptr, align 8
  %19 = alloca i64, align 8
  store ptr %0, ptr %7, align 8, !tbaa !12
  store ptr %1, ptr %8, align 8, !tbaa !12
  store ptr %2, ptr %9, align 8, !tbaa !12
  store i32 %3, ptr %10, align 4, !tbaa !3
  store i32 %4, ptr %11, align 4, !tbaa !3
  store i32 %5, ptr %12, align 4, !tbaa !3
  call void @llvm.lifetime.start.p0(i64 4, ptr %13) #13
  call void @llvm.lifetime.start.p0(i64 4, ptr %14) #13
  call void @llvm.lifetime.start.p0(i64 4, ptr %15) #13
  store i32 16, ptr %15, align 4, !tbaa !3
  call void @llvm.lifetime.start.p0(i64 8, ptr %16) #13
  store ptr null, ptr %16, align 8, !tbaa !25
  call void @llvm.lifetime.start.p0(i64 8, ptr %17) #13
  store ptr null, ptr %17, align 8, !tbaa !12
  call void @llvm.lifetime.start.p0(i64 8, ptr %18) #13
  store ptr null, ptr %18, align 8, !tbaa !12
  call void @llvm.lifetime.start.p0(i64 8, ptr %19) #13
  store i64 0, ptr %19, align 8, !tbaa !7
  %20 = load ptr, ptr %7, align 8, !tbaa !12
  %21 = icmp eq ptr null, %20
  br i1 %21, label %28, label %22

22:                                               ; preds = %6
  %23 = load ptr, ptr %8, align 8, !tbaa !12
  %24 = icmp eq ptr null, %23
  br i1 %24, label %28, label %25

25:                                               ; preds = %22
  %26 = load ptr, ptr %9, align 8, !tbaa !12
  %27 = icmp eq ptr null, %26
  br i1 %27, label %28, label %30

28:                                               ; preds = %25, %22, %6
  %29 = call i32 (i32, ptr, ...) @logg(i32 noundef 5, ptr noundef @.str.188)
  br label %138

30:                                               ; preds = %25
  %31 = load ptr, ptr %9, align 8, !tbaa !12
  %32 = call i64 @strlen(ptr noundef %31) #15
  %33 = add i64 %32, 1
  %34 = load ptr, ptr %7, align 8, !tbaa !12
  %35 = call i64 @strlen(ptr noundef %34) #15
  %36 = add i64 %33, %35
  store i64 %36, ptr %19, align 8, !tbaa !7
  %37 = load i64, ptr %19, align 8, !tbaa !7
  %38 = add i64 %37, 1
  %39 = call noalias ptr @malloc(i64 noundef %38) #16
  store ptr %39, ptr %18, align 8, !tbaa !12
  %40 = load ptr, ptr %18, align 8, !tbaa !12
  %41 = load i64, ptr %19, align 8, !tbaa !7
  %42 = add i64 %41, 1
  %43 = load ptr, ptr %9, align 8, !tbaa !12
  %44 = load ptr, ptr %7, align 8, !tbaa !12
  %45 = call i32 (ptr, i64, ptr, ...) @snprintf(ptr noundef %40, i64 noundef %42, ptr noundef @.str.111, ptr noundef %43, ptr noundef %44) #13
  %46 = load ptr, ptr %18, align 8, !tbaa !12
  %47 = load ptr, ptr %8, align 8, !tbaa !12
  %48 = load i32, ptr %12, align 4, !tbaa !3
  %49 = load i32, ptr %10, align 4, !tbaa !3
  %50 = zext i32 %49 to i64
  %51 = call i32 @downloadFile(ptr noundef %46, ptr noundef %47, i32 noundef 1, i32 noundef %48, i64 noundef %50)
  store i32 %51, ptr %13, align 4, !tbaa !3
  %52 = load i32, ptr %13, align 4, !tbaa !3
  %53 = icmp eq i32 %52, 1
  br i1 %53, label %54, label %58

54:                                               ; preds = %30
  %55 = load ptr, ptr %7, align 8, !tbaa !12
  %56 = call i32 (i32, ptr, ...) @logg(i32 noundef 0, ptr noundef @.str.189, ptr noundef %55)
  %57 = load i32, ptr %13, align 4, !tbaa !3
  store i32 %57, ptr %15, align 4, !tbaa !3
  br label %138

58:                                               ; preds = %30
  %59 = load i32, ptr %13, align 4, !tbaa !3
  %60 = icmp ugt i32 %59, 1
  br i1 %60, label %61, label %69

61:                                               ; preds = %58
  %62 = load i32, ptr %12, align 4, !tbaa !3
  %63 = icmp ne i32 %62, 0
  %64 = select i1 %63, i32 5, i32 4
  %65 = load ptr, ptr %7, align 8, !tbaa !12
  %66 = load ptr, ptr %18, align 8, !tbaa !12
  %67 = call i32 (i32, ptr, ...) @logg(i32 noundef %64, ptr noundef @.str.64, ptr noundef %65, ptr noundef %66)
  %68 = load i32, ptr %13, align 4, !tbaa !3
  store i32 %68, ptr %15, align 4, !tbaa !3
  br label %138

69:                                               ; preds = %58
  br label %70

70:                                               ; preds = %69
  %71 = load ptr, ptr %8, align 8, !tbaa !12
  %72 = call noalias ptr @strdup(ptr noundef %71) #13
  store ptr %72, ptr %17, align 8, !tbaa !12
  %73 = load ptr, ptr %17, align 8, !tbaa !12
  %74 = icmp ne ptr %73, null
  br i1 %74, label %77, label %75

75:                                               ; preds = %70
  %76 = call i32 (i32, ptr, ...) @logg(i32 noundef 5, ptr noundef @.str.190)
  store i32 15, ptr %15, align 4, !tbaa !3
  br label %138

77:                                               ; preds = %70
  %78 = load ptr, ptr %17, align 8, !tbaa !12
  %79 = load ptr, ptr %17, align 8, !tbaa !12
  %80 = call i64 @strlen(ptr noundef %79) #15
  %81 = getelementptr inbounds nuw i8, ptr %78, i64 %80
  %82 = getelementptr inbounds i8, ptr %81, i64 -4
  %83 = load ptr, ptr %7, align 8, !tbaa !12
  %84 = load ptr, ptr %7, align 8, !tbaa !12
  %85 = call i64 @strlen(ptr noundef %84) #15
  %86 = getelementptr inbounds nuw i8, ptr %83, i64 %85
  %87 = getelementptr inbounds i8, ptr %86, i64 -4
  %88 = call ptr @strncpy(ptr noundef %82, ptr noundef %87, i64 noundef 4) #13
  %89 = load ptr, ptr %8, align 8, !tbaa !12
  %90 = load ptr, ptr %17, align 8, !tbaa !12
  %91 = call i32 @rename(ptr noundef %89, ptr noundef %90) #13
  %92 = icmp eq i32 %91, -1
  br i1 %92, label %93, label %100

93:                                               ; preds = %77
  %94 = load ptr, ptr %8, align 8, !tbaa !12
  %95 = load ptr, ptr %17, align 8, !tbaa !12
  %96 = call ptr @__errno_location() #14
  %97 = load i32, ptr %96, align 4, !tbaa !3
  %98 = call ptr @strerror(i32 noundef %97) #13
  %99 = call i32 (i32, ptr, ...) @logg(i32 noundef 5, ptr noundef @.str.191, ptr noundef %94, ptr noundef %95, ptr noundef %98)
  store i32 10, ptr %15, align 4, !tbaa !3
  br label %138

100:                                              ; preds = %77
  %101 = load ptr, ptr %17, align 8, !tbaa !12
  %102 = call i32 @cl_cvdverify(ptr noundef %101)
  store i32 %102, ptr %14, align 4, !tbaa !3
  %103 = icmp ne i32 0, %102
  br i1 %103, label %104, label %108

104:                                              ; preds = %100
  %105 = load i32, ptr %14, align 4, !tbaa !3
  %106 = call ptr @cl_strerror(i32 noundef %105)
  %107 = call i32 (i32, ptr, ...) @logg(i32 noundef 5, ptr noundef @.str.192, ptr noundef %106)
  store i32 7, ptr %15, align 4, !tbaa !3
  br label %138

108:                                              ; preds = %100
  %109 = load ptr, ptr %17, align 8, !tbaa !12
  %110 = call ptr @cl_cvdhead(ptr noundef %109)
  store ptr %110, ptr %16, align 8, !tbaa !25
  %111 = icmp eq ptr null, %110
  br i1 %111, label %112, label %115

112:                                              ; preds = %108
  %113 = load ptr, ptr %7, align 8, !tbaa !12
  %114 = call i32 (i32, ptr, ...) @logg(i32 noundef 5, ptr noundef @.str.193, ptr noundef %113)
  store i32 7, ptr %15, align 4, !tbaa !3
  br label %138

115:                                              ; preds = %108
  %116 = load ptr, ptr %17, align 8, !tbaa !12
  %117 = load ptr, ptr %8, align 8, !tbaa !12
  %118 = call i32 @rename(ptr noundef %116, ptr noundef %117) #13
  %119 = icmp eq i32 %118, -1
  br i1 %119, label %120, label %127

120:                                              ; preds = %115
  %121 = load ptr, ptr %17, align 8, !tbaa !12
  %122 = load ptr, ptr %8, align 8, !tbaa !12
  %123 = call ptr @__errno_location() #14
  %124 = load i32, ptr %123, align 4, !tbaa !3
  %125 = call ptr @strerror(i32 noundef %124) #13
  %126 = call i32 (i32, ptr, ...) @logg(i32 noundef 5, ptr noundef @.str.191, ptr noundef %121, ptr noundef %122, ptr noundef %125)
  store i32 10, ptr %15, align 4, !tbaa !3
  br label %138

127:                                              ; preds = %115
  %128 = load ptr, ptr %16, align 8, !tbaa !25
  %129 = getelementptr inbounds nuw %struct.cl_cvd, ptr %128, i32 0, i32 1
  %130 = load i32, ptr %129, align 8, !tbaa !31
  %131 = load i32, ptr %11, align 4, !tbaa !3
  %132 = icmp ult i32 %130, %131
  br i1 %132, label %133, label %137

133:                                              ; preds = %127
  %134 = load ptr, ptr %7, align 8, !tbaa !12
  %135 = load ptr, ptr %9, align 8, !tbaa !12
  %136 = call i32 (i32, ptr, ...) @logg(i32 noundef 2, ptr noundef @.str.194, ptr noundef %134, ptr noundef %135)
  store i32 12, ptr %15, align 4, !tbaa !3
  br label %138

137:                                              ; preds = %127
  store i32 0, ptr %15, align 4, !tbaa !3
  br label %138

138:                                              ; preds = %137, %133, %120, %112, %104, %93, %75, %61, %54, %28
  %139 = load ptr, ptr %16, align 8, !tbaa !25
  %140 = icmp ne ptr null, %139
  br i1 %140, label %141, label %143

141:                                              ; preds = %138
  %142 = load ptr, ptr %16, align 8, !tbaa !25
  call void @cl_cvdfree(ptr noundef %142)
  br label %143

143:                                              ; preds = %141, %138
  %144 = load ptr, ptr %17, align 8, !tbaa !12
  %145 = icmp ne ptr null, %144
  br i1 %145, label %146, label %150

146:                                              ; preds = %143
  %147 = load ptr, ptr %17, align 8, !tbaa !12
  %148 = call i32 @unlink(ptr noundef %147) #13
  %149 = load ptr, ptr %17, align 8, !tbaa !12
  call void @free(ptr noundef %149) #13
  br label %150

150:                                              ; preds = %146, %143
  %151 = load ptr, ptr %18, align 8, !tbaa !12
  %152 = icmp ne ptr null, %151
  br i1 %152, label %153, label %155

153:                                              ; preds = %150
  %154 = load ptr, ptr %18, align 8, !tbaa !12
  call void @free(ptr noundef %154) #13
  br label %155

155:                                              ; preds = %153, %150
  %156 = load i32, ptr %15, align 4, !tbaa !3
  %157 = icmp ne i32 0, %156
  br i1 %157, label %158, label %168

158:                                              ; preds = %155
  %159 = load i32, ptr %15, align 4, !tbaa !3
  %160 = icmp ne i32 12, %159
  br i1 %160, label %161, label %168

161:                                              ; preds = %158
  %162 = load ptr, ptr %8, align 8, !tbaa !12
  %163 = icmp ne ptr null, %162
  br i1 %163, label %164, label %167

164:                                              ; preds = %161
  %165 = load ptr, ptr %8, align 8, !tbaa !12
  %166 = call i32 @unlink(ptr noundef %165) #13
  br label %167

167:                                              ; preds = %164, %161
  br label %168

168:                                              ; preds = %167, %158, %155
  %169 = load i32, ptr %15, align 4, !tbaa !3
  call void @llvm.lifetime.end.p0(i64 8, ptr %19) #13
  call void @llvm.lifetime.end.p0(i64 8, ptr %18) #13
  call void @llvm.lifetime.end.p0(i64 8, ptr %17) #13
  call void @llvm.lifetime.end.p0(i64 8, ptr %16) #13
  call void @llvm.lifetime.end.p0(i64 4, ptr %15) #13
  call void @llvm.lifetime.end.p0(i64 4, ptr %14) #13
  call void @llvm.lifetime.end.p0(i64 4, ptr %13) #13
  ret i32 %169
}