; Function Attrs: nounwind uwtable
define internal fastcc range(i32 0, 19) i32 @getcvd(ptr noundef %0, ptr noundef nonnull %1, ptr noundef nonnull %2, i32 noundef %3, i32 noundef %4, i32 noundef %5) unnamed_addr #0 {
  %7 = icmp eq ptr %0, null
  br i1 %7, label %.thread109, label %9

.thread109:                                       ; preds = %6
  %8 = tail call i32 (i32, ptr, ...) @logg(i32 noundef 5, ptr noundef nonnull @.str.188) #24
  br label %70

9:                                                ; preds = %6
  %10 = tail call i64 @strlen(ptr noundef nonnull dereferenceable(1) %2) #28
  %11 = tail call i64 @strlen(ptr noundef nonnull dereferenceable(1) %0) #28
  %12 = add i64 %10, 2
  %13 = add i64 %12, %11
  %14 = tail call noalias ptr @malloc(i64 noundef %13) #26
  %15 = tail call i32 (ptr, i64, ptr, ...) @snprintf(ptr noundef %14, i64 noundef %13, ptr noundef nonnull @.str.111, ptr noundef nonnull %2, ptr noundef nonnull %0) #24
  %16 = zext i32 %3 to i64
  %17 = tail call fastcc i32 @downloadFile(ptr noundef %14, ptr noundef %1, i32 noundef %5, i64 noundef %16)
  switch i32 %17, label %20 [
    i32 1, label %18
    i32 0, label %23
  ]

18:                                               ; preds = %9
  %19 = tail call i32 (i32, ptr, ...) @logg(i32 noundef 0, ptr noundef nonnull @.str.189, ptr noundef nonnull %0) #24
  br label %.thread100

20:                                               ; preds = %9
  %.not77 = icmp eq i32 %5, 0
  %21 = select i1 %.not77, i32 4, i32 5
  %22 = tail call i32 (i32, ptr, ...) @logg(i32 noundef %21, ptr noundef nonnull @.str.64, ptr noundef nonnull %0, ptr noundef %14) #24
  br label %.thread100

23:                                               ; preds = %9
  %24 = tail call noalias ptr @strdup(ptr noundef nonnull %1) #24
  %.not75 = icmp eq ptr %24, null
  br i1 %.not75, label %25, label %27

25:                                               ; preds = %23
  %26 = tail call i32 (i32, ptr, ...) @logg(i32 noundef 5, ptr noundef nonnull @.str.190) #24
  br label %.thread100

27:                                               ; preds = %23
  %28 = tail call i64 @strlen(ptr noundef nonnull dereferenceable(1) %24) #28
  %29 = getelementptr inbounds nuw i8, ptr %24, i64 %28
  %30 = getelementptr inbounds i8, ptr %29, i64 -4
  %31 = tail call i64 @strlen(ptr noundef nonnull dereferenceable(1) %0) #28
  %32 = getelementptr inbounds nuw i8, ptr %0, i64 %31
  %33 = getelementptr inbounds i8, ptr %32, i64 -4
  %34 = tail call ptr @strncpy(ptr noundef nonnull dereferenceable(1) %30, ptr noundef nonnull dereferenceable(1) %33, i64 noundef 4) #24
  %35 = tail call i32 @rename(ptr noundef nonnull %1, ptr noundef nonnull %24) #24
  %36 = icmp eq i32 %35, -1
  br i1 %36, label %37, label %42

37:                                               ; preds = %27
  %38 = tail call ptr @__errno_location() #25
  %39 = load i32, ptr %38, align 4, !tbaa !3
  %40 = tail call ptr @strerror(i32 noundef %39) #24
  %41 = tail call i32 (i32, ptr, ...) @logg(i32 noundef 5, ptr noundef nonnull @.str.191, ptr noundef nonnull %1, ptr noundef nonnull %24, ptr noundef %40) #24
  br label %66

42:                                               ; preds = %27
  %43 = tail call i32 @cl_cvdverify(ptr noundef nonnull %24) #24
  %.not76 = icmp eq i32 %43, 0
  br i1 %.not76, label %47, label %44

44:                                               ; preds = %42
  %45 = tail call ptr @cl_strerror(i32 noundef %43) #24
  %46 = tail call i32 (i32, ptr, ...) @logg(i32 noundef 5, ptr noundef nonnull @.str.192, ptr noundef %45) #24
  br label %66

47:                                               ; preds = %42
  %48 = tail call ptr @cl_cvdhead(ptr noundef nonnull %24) #24
  %49 = icmp eq ptr %48, null
  br i1 %49, label %50, label %52

50:                                               ; preds = %47
  %51 = tail call i32 (i32, ptr, ...) @logg(i32 noundef 5, ptr noundef nonnull @.str.193, ptr noundef nonnull %0) #24
  br label %66

52:                                               ; preds = %47
  %53 = tail call i32 @rename(ptr noundef nonnull %24, ptr noundef nonnull %1) #24
  %54 = icmp eq i32 %53, -1
  br i1 %54, label %55, label %60

55:                                               ; preds = %52
  %56 = tail call ptr @__errno_location() #25
  %57 = load i32, ptr %56, align 4, !tbaa !3
  %58 = tail call ptr @strerror(i32 noundef %57) #24
  %59 = tail call i32 (i32, ptr, ...) @logg(i32 noundef 5, ptr noundef nonnull @.str.191, ptr noundef nonnull %24, ptr noundef nonnull %1, ptr noundef %58) #24
  br label %.thread89

60:                                               ; preds = %52
  %61 = getelementptr inbounds nuw i8, ptr %48, i64 8
  %62 = load i32, ptr %61, align 8, !tbaa !19
  %63 = icmp ult i32 %62, %4
  br i1 %63, label %64, label %.thread89

64:                                               ; preds = %60
  %65 = tail call i32 (i32, ptr, ...) @logg(i32 noundef 2, ptr noundef nonnull @.str.194, ptr noundef nonnull %0, ptr noundef nonnull %2) #24
  br label %.thread89

.thread89:                                        ; preds = %60, %64, %55
  %.064 = phi i32 [ 10, %55 ], [ 12, %64 ], [ 0, %60 ]
  tail call void @cl_cvdfree(ptr noundef nonnull %48) #24
  br label %66

66:                                               ; preds = %50, %44, %37, %.thread89
  %.0648697 = phi i32 [ %.064, %.thread89 ], [ 7, %50 ], [ 7, %44 ], [ 10, %37 ]
  %67 = tail call i32 @unlink(ptr noundef nonnull %24) #24
  tail call void @free(ptr noundef nonnull %24) #24
  br label %.thread100

.thread100:                                       ; preds = %18, %20, %25, %66
  %.0648698 = phi i32 [ %.0648697, %66 ], [ 1, %18 ], [ %17, %20 ], [ 15, %25 ]
  %.not80 = icmp eq ptr %14, null
  br i1 %.not80, label %69, label %68

68:                                               ; preds = %.thread100
  tail call void @free(ptr noundef nonnull %14) #24
  br label %69

69:                                               ; preds = %68, %.thread100
  switch i32 %.0648698, label %70 [
    i32 12, label %72
    i32 0, label %72
  ]

70:                                               ; preds = %.thread109, %69
  %.0648698108112 = phi i32 [ 16, %.thread109 ], [ %.0648698, %69 ]
  %71 = tail call i32 @unlink(ptr noundef nonnull %1) #24
  br label %72

72:                                               ; preds = %69, %69, %70
  %.0648698108111 = phi i32 [ %.0648698, %69 ], [ %.0648698, %69 ], [ %.0648698108112, %70 ]
  ret i32 %.0648698108111
}